--- debian/symbols (libdxflib3_3.12.2_amd64)
+++ dpkg-gensymbolsbVsR8b	2016-01-09 22:31:04.260117532 +0000
@@ -0,0 +1,206 @@
+libdxflib.so.3 libdxflib3 #MINVER#
+ _ZN10DL_WriterA10strReplaceEPccc@Base 3.12.2
+ _ZN10DL_WriterAD0Ev@Base 3.12.2
+ _ZN10DL_WriterAD1Ev@Base 3.12.2
+ _ZN10DL_WriterAD2Ev@Base 3.12.2
+ _ZN11DL_TextDataD1Ev@Base 3.12.2
+ _ZN11DL_TextDataD2Ev@Base 3.12.2
+ _ZN13DL_AttributesD1Ev@Base 3.12.2
+ _ZN13DL_AttributesD2Ev@Base 3.12.2
+ _ZN16DL_DimensionDataD1Ev@Base 3.12.2
+ _ZN16DL_DimensionDataD2Ev@Base 3.12.2
+ _ZN16DL_HatchEdgeDataC1ERKS_@Base 3.12.2
+ _ZN16DL_HatchEdgeDataC2ERKS_@Base 3.12.2
+ _ZN16DL_HatchEdgeDataD1Ev@Base 3.12.2
+ _ZN16DL_HatchEdgeDataD2Ev@Base 3.12.2
+ _ZN18DL_CreationAdapter10addCommentERKNSt7__cxx1112basic_stringIcSt11char_traitsIcESaIcEEE@Base 3.12.2
+ _ZN18DL_CreationAdapter11addXDataIntEii@Base 3.12.2
+ _ZN18DL_CreationAdapter11endSequenceEv@Base 3.12.2
+ _ZN18DL_CreationAdapter12addXDataRealEid@Base 3.12.2
+ _ZN18DL_CreationAdapter14addDimOrdinateERK16DL_DimensionDataRK18DL_DimOrdinateData@Base 3.12.2
+ _ZN18DL_CreationAdapter14addXDataStringEiRKNSt7__cxx1112basic_stringIcSt11char_traitsIcESaIcEEE@Base 3.12.2
+ _ZN18DL_CreationAdapter14addXRecordBoolEib@Base 3.12.2
+ _ZN18DL_CreationAdapter14setVariableIntERKNSt7__cxx1112basic_stringIcSt11char_traitsIcESaIcEEEii@Base 3.12.2
+ _ZN18DL_CreationAdapter15addLinetypeDashEd@Base 3.12.2
+ _ZN18DL_CreationAdapter17setVariableDoubleERKNSt7__cxx1112basic_stringIcSt11char_traitsIcESaIcEEEdi@Base 3.12.2
+ _ZN18DL_CreationAdapter17setVariableStringERKNSt7__cxx1112basic_stringIcSt11char_traitsIcESaIcEEES7_i@Base 3.12.2
+ _ZN18DL_CreationAdapter17setVariableVectorERKNSt7__cxx1112basic_stringIcSt11char_traitsIcESaIcEEEdddi@Base 3.12.2
+ _ZN18DL_CreationAdapter20processCodeValuePairEjRKNSt7__cxx1112basic_stringIcSt11char_traitsIcESaIcEEE@Base 3.12.2
+ _ZN22DL_DictionaryEntryDataD1Ev@Base 3.12.2
+ _ZN22DL_DictionaryEntryDataD2Ev@Base 3.12.2
+ _ZN6DL_Dxf10addCommentEP20DL_CreationInterfaceRKNSt7__cxx1112basic_stringIcSt11char_traitsIcESaIcEEE@Base 3.12.2
+ _ZN6DL_Dxf10addEllipseEP20DL_CreationInterface@Base 3.12.2
+ _ZN6DL_Dxf10addSettingEP20DL_CreationInterface@Base 3.12.2
+ _ZN6DL_Dxf10getDimDataEv@Base 3.12.2
+ _ZN6DL_Dxf10writeAppidER10DL_WriterARKNSt7__cxx1112basic_stringIcSt11char_traitsIcESaIcEEE@Base 3.12.2
+ _ZN6DL_Dxf10writeBlockER10DL_WriterARK12DL_BlockData@Base 3.12.2
+ _ZN6DL_Dxf10writeImageER10DL_WriterARK12DL_ImageDataRK13DL_Attributes@Base 3.12.2
+ _ZN6DL_Dxf10writeLayerER10DL_WriterARK12DL_LayerDataRK13DL_Attributes@Base 3.12.2
+ _ZN6DL_Dxf10writeMTextER10DL_WriterARK12DL_MTextDataRK13DL_Attributes@Base 3.12.2
+ _ZN6DL_Dxf10writePointER10DL_WriterARK12DL_PointDataRK13DL_Attributes@Base 3.12.2
+ _ZN6DL_Dxf10writeSolidER10DL_WriterARK12DL_TraceDataRK13DL_Attributes@Base 3.12.2
+ _ZN6DL_Dxf10writeStyleER10DL_WriterARK12DL_StyleData@Base 3.12.2
+ _ZN6DL_Dxf10writeTraceER10DL_WriterARK12DL_TraceDataRK13DL_Attributes@Base 3.12.2
+ _ZN6DL_Dxf10writeVPortER10DL_WriterA@Base 3.12.2
+ _ZN6DL_Dxf10writeXLineER10DL_WriterARK12DL_XLineDataRK13DL_Attributes@Base 3.12.2
+ _ZN6DL_Dxf11addImageDefEP20DL_CreationInterface@Base 3.12.2
+ _ZN6DL_Dxf11addLinetypeEP20DL_CreationInterface@Base 3.12.2
+ _ZN6DL_Dxf11addPolylineEP20DL_CreationInterface@Base 3.12.2
+ _ZN6DL_Dxf11endSequenceEP20DL_CreationInterface@Base 3.12.2
+ _ZN6DL_Dxf11getIntValueEii@Base 3.12.2
+ _ZN6DL_Dxf11handleXDataEP20DL_CreationInterface@Base 3.12.2
+ _ZN6DL_Dxf11write3dFaceER10DL_WriterARK12DL_TraceDataRK13DL_Attributes@Base 3.12.2
+ _ZN6DL_Dxf11writeCircleER10DL_WriterARK13DL_CircleDataRK13DL_Attributes@Base 3.12.2
+ _ZN6DL_Dxf11writeHatch1ER10DL_WriterARK12DL_HatchDataRK13DL_Attributes@Base 3.12.2
+ _ZN6DL_Dxf11writeHatch2ER10DL_WriterARK12DL_HatchDataRK13DL_Attributes@Base 3.12.2
+ _ZN6DL_Dxf11writeHeaderER10DL_WriterA@Base 3.12.2
+ _ZN6DL_Dxf11writeInsertER10DL_WriterARK13DL_InsertDataRK13DL_Attributes@Base 3.12.2
+ _ZN6DL_Dxf11writeLeaderER10DL_WriterARK13DL_LeaderDataRK13DL_Attributes@Base 3.12.2
+ _ZN6DL_Dxf11writeSplineER10DL_WriterARK13DL_SplineDataRK13DL_Attributes@Base 3.12.2
+ _ZN6DL_Dxf11writeVertexER10DL_WriterARK13DL_VertexData@Base 3.12.2
+ _ZN6DL_Dxf12addAttributeEP20DL_CreationInterface@Base 3.12.2
+ _ZN6DL_Dxf12addDimLinearEP20DL_CreationInterface@Base 3.12.2
+ _ZN6DL_Dxf12addDimRadialEP20DL_CreationInterface@Base 3.12.2
+ _ZN6DL_Dxf12addHatchEdgeEv@Base 3.12.2
+ _ZN6DL_Dxf12addHatchLoopEv@Base 3.12.2
+ _ZN6DL_Dxf12addTextStyleEP20DL_CreationInterface@Base 3.12.2
+ _ZN6DL_Dxf12getRealValueEid@Base 3.12.2
+ _ZN6DL_Dxf12writeCommentER10DL_WriterARKNSt7__cxx1112basic_stringIcSt11char_traitsIcESaIcEEE@Base 3.12.2
+ _ZN6DL_Dxf12writeEllipseER10DL_WriterARK14DL_EllipseDataRK13DL_Attributes@Base 3.12.2
+ _ZN6DL_Dxf12writeObjectsER10DL_WriterARKNSt7__cxx1112basic_stringIcSt11char_traitsIcESaIcEEE@Base 3.12.2
+ _ZN6DL_Dxf12writeXRecordER10DL_WriterAiRKNSt7__cxx1112basic_stringIcSt11char_traitsIcESaIcEEE@Base 3.12.2
+ _ZN6DL_Dxf12writeXRecordER10DL_WriterAib@Base 3.12.2
+ _ZN6DL_Dxf12writeXRecordER10DL_WriterAid@Base 3.12.2
+ _ZN6DL_Dxf12writeXRecordER10DL_WriterAii@Base 3.12.2
+ _ZN6DL_Dxf13addDictionaryEP20DL_CreationInterface@Base 3.12.2
+ _ZN6DL_Dxf13addDimAlignedEP20DL_CreationInterface@Base 3.12.2
+ _ZN6DL_Dxf13addDimAngularEP20DL_CreationInterface@Base 3.12.2
+ _ZN6DL_Dxf13checkVariableEPKcN8DL_Codes7versionE@Base 3.12.2
+ _ZN6DL_Dxf13getLibVersionERKNSt7__cxx1112basic_stringIcSt11char_traitsIcESaIcEEE@Base 3.12.2
+ _ZN6DL_Dxf13readDxfGroupsEP8_IO_FILEP20DL_CreationInterface@Base 3.12.2
+ _ZN6DL_Dxf13readDxfGroupsERNSt7__cxx1118basic_stringstreamIcSt11char_traitsIcESaIcEEEP20DL_CreationInterface@Base 3.12.2
+ _ZN6DL_Dxf13writeDimStyleER10DL_WriterAddddd@Base 3.12.2
+ _ZN6DL_Dxf13writeEndBlockER10DL_WriterARKNSt7__cxx1112basic_stringIcSt11char_traitsIcESaIcEEE@Base 3.12.2
+ _ZN6DL_Dxf13writeFitPointER10DL_WriterARK15DL_FitPointData@Base 3.12.2
+ _ZN6DL_Dxf13writeImageDefER10DL_WriterAiRK12DL_ImageData@Base 3.12.2
+ _ZN6DL_Dxf13writeLinetypeER10DL_WriterARK15DL_LinetypeData@Base 3.12.2
+ _ZN6DL_Dxf13writePolylineER10DL_WriterARK15DL_PolylineDataRK13DL_Attributes@Base 3.12.2
+ _ZN6DL_Dxf14addDimOrdinateEP20DL_CreationInterface@Base 3.12.2
+ _ZN6DL_Dxf14getStringValueEiRKNSt7__cxx1112basic_stringIcSt11char_traitsIcESaIcEEE@Base 3.12.2
+ _ZN6DL_Dxf14writeAttributeER10DL_WriterARK16DL_AttributeDataRK13DL_Attributes@Base 3.12.2
+ _ZN6DL_Dxf14writeDimLinearER10DL_WriterARK16DL_DimensionDataRK16DL_DimLinearDataRK13DL_Attributes@Base 3.12.2
+ _ZN6DL_Dxf14writeDimRadialER10DL_WriterARK16DL_DimensionDataRK16DL_DimRadialDataRK13DL_Attributes@Base 3.12.2
+ _ZN6DL_Dxf14writeHatchEdgeER10DL_WriterARK16DL_HatchEdgeData@Base 3.12.2
+ _ZN6DL_Dxf15addDimAngular3PEP20DL_CreationInterface@Base 3.12.2
+ _ZN6DL_Dxf15addDimDiametricEP20DL_CreationInterface@Base 3.12.2
+ _ZN6DL_Dxf15getStrippedLineERNSt7__cxx1112basic_stringIcSt11char_traitsIcESaIcEEEjP8_IO_FILEb@Base 3.12.2
+ _ZN6DL_Dxf15getStrippedLineERNSt7__cxx1112basic_stringIcSt11char_traitsIcESaIcEEEjRNS0_18basic_stringstreamIcS3_S4_EEb@Base 3.12.2
+ _ZN6DL_Dxf15handleHatchDataEP20DL_CreationInterface@Base 3.12.2
+ _ZN6DL_Dxf15handleMTextDataEP20DL_CreationInterface@Base 3.12.2
+ _ZN6DL_Dxf15processDXFGroupEP20DL_CreationInterfaceiRKNSt7__cxx1112basic_stringIcSt11char_traitsIcESaIcEEE@Base 3.12.2
+ _ZN6DL_Dxf15stripWhiteSpaceEPPcb@Base 3.12.2
+ _ZN6DL_Dxf15writeDimAlignedER10DL_WriterARK16DL_DimensionDataRK17DL_DimAlignedDataRK13DL_Attributes@Base 3.12.2
+ _ZN6DL_Dxf15writeDimAngularER10DL_WriterARK16DL_DimensionDataRK17DL_DimAngularDataRK13DL_Attributes@Base 3.12.2
+ _ZN6DL_Dxf15writeHatchLoop1ER10DL_WriterARK16DL_HatchLoopData@Base 3.12.2
+ _ZN6DL_Dxf15writeHatchLoop2ER10DL_WriterARK16DL_HatchLoopData@Base 3.12.2
+ _ZN6DL_Dxf15writeObjectsEndER10DL_WriterA@Base 3.12.2
+ _ZN6DL_Dxf16handleLeaderDataEP20DL_CreationInterface@Base 3.12.2
+ _ZN6DL_Dxf16handleSplineDataEP20DL_CreationInterface@Base 3.12.2
+ _ZN6DL_Dxf16writeBlockRecordER10DL_WriterA@Base 3.12.2
+ _ZN6DL_Dxf16writeBlockRecordER10DL_WriterARKNSt7__cxx1112basic_stringIcSt11char_traitsIcESaIcEEE@Base 3.12.2
+ _ZN6DL_Dxf16writeDimOrdinateER10DL_WriterARK16DL_DimensionDataRK18DL_DimOrdinateDataRK13DL_Attributes@Base 3.12.2
+ _ZN6DL_Dxf16writePolylineEndER10DL_WriterA@Base 3.12.2
+ _ZN6DL_Dxf17handleXRecordDataEP20DL_CreationInterface@Base 3.12.2
+ _ZN6DL_Dxf17writeControlPointER10DL_WriterARK19DL_ControlPointData@Base 3.12.2
+ _ZN6DL_Dxf17writeDimAngular3PER10DL_WriterARK16DL_DimensionDataRK19DL_DimAngular3PDataRK13DL_Attributes@Base 3.12.2
+ _ZN6DL_Dxf17writeDimDiametricER10DL_WriterARK16DL_DimensionDataRK19DL_DimDiametricDataRK13DL_Attributes@Base 3.12.2
+ _ZN6DL_Dxf17writeLeaderVertexER10DL_WriterARK19DL_LeaderVertexData@Base 3.12.2
+ _ZN6DL_Dxf18addDictionaryEntryEP20DL_CreationInterface@Base 3.12.2
+ _ZN6DL_Dxf18handleLinetypeDataEP20DL_CreationInterface@Base 3.12.2
+ _ZN6DL_Dxf18writeAppDictionaryER10DL_WriterA@Base 3.12.2
+ _ZN6DL_Dxf20handleDictionaryDataEP20DL_CreationInterface@Base 3.12.2
+ _ZN6DL_Dxf20handleLWPolylineDataEP20DL_CreationInterface@Base 3.12.2
+ _ZN6DL_Dxf20writeDictionaryEntryER10DL_WriterARKNSt7__cxx1112basic_stringIcSt11char_traitsIcESaIcEEE@Base 3.12.2
+ _ZN6DL_Dxf22writeDimStyleOverridesER10DL_WriterARK16DL_DimensionData@Base 3.12.2
+ _ZN6DL_Dxf2inERKNSt7__cxx1112basic_stringIcSt11char_traitsIcESaIcEEEP20DL_CreationInterface@Base 3.12.2
+ _ZN6DL_Dxf2inERNSt7__cxx1118basic_stringstreamIcSt11char_traitsIcESaIcEEEP20DL_CreationInterface@Base 3.12.2
+ _ZN6DL_Dxf3outEPKcN8DL_Codes7versionE@Base 3.12.2
+ _ZN6DL_Dxf4testEv@Base 3.12.2
+ _ZN6DL_Dxf6addArcEP20DL_CreationInterface@Base 3.12.2
+ _ZN6DL_Dxf6addRayEP20DL_CreationInterface@Base 3.12.2
+ _ZN6DL_Dxf6toRealERKNSt7__cxx1112basic_stringIcSt11char_traitsIcESaIcEEE@Base 3.12.2
+ _ZN6DL_Dxf7addLineEP20DL_CreationInterface@Base 3.12.2
+ _ZN6DL_Dxf7addTextEP20DL_CreationInterface@Base 3.12.2
+ _ZN6DL_Dxf8addBlockEP20DL_CreationInterface@Base 3.12.2
+ _ZN6DL_Dxf8addHatchEP20DL_CreationInterface@Base 3.12.2
+ _ZN6DL_Dxf8addImageEP20DL_CreationInterface@Base 3.12.2
+ _ZN6DL_Dxf8addLayerEP20DL_CreationInterface@Base 3.12.2
+ _ZN6DL_Dxf8addMTextEP20DL_CreationInterface@Base 3.12.2
+ _ZN6DL_Dxf8addPointEP20DL_CreationInterface@Base 3.12.2
+ _ZN6DL_Dxf8addSolidEP20DL_CreationInterface@Base 3.12.2
+ _ZN6DL_Dxf8addTraceEP20DL_CreationInterface@Base 3.12.2
+ _ZN6DL_Dxf8addXLineEP20DL_CreationInterface@Base 3.12.2
+ _ZN6DL_Dxf8endBlockEP20DL_CreationInterface@Base 3.12.2
+ _ZN6DL_Dxf8writeArcER10DL_WriterARK10DL_ArcDataRK13DL_Attributes@Base 3.12.2
+ _ZN6DL_Dxf8writeRayER10DL_WriterARK10DL_RayDataRK13DL_Attributes@Base 3.12.2
+ _ZN6DL_Dxf8writeUcsER10DL_WriterA@Base 3.12.2
+ _ZN6DL_Dxf9add3dFaceEP20DL_CreationInterface@Base 3.12.2
+ _ZN6DL_Dxf9addCircleEP20DL_CreationInterface@Base 3.12.2
+ _ZN6DL_Dxf9addInsertEP20DL_CreationInterface@Base 3.12.2
+ _ZN6DL_Dxf9addLeaderEP20DL_CreationInterface@Base 3.12.2
+ _ZN6DL_Dxf9addSplineEP20DL_CreationInterface@Base 3.12.2
+ _ZN6DL_Dxf9addVertexEP20DL_CreationInterface@Base 3.12.2
+ _ZN6DL_Dxf9endEntityEP20DL_CreationInterface@Base 3.12.2
+ _ZN6DL_Dxf9writeKnotER10DL_WriterARK11DL_KnotData@Base 3.12.2
+ _ZN6DL_Dxf9writeLineER10DL_WriterARK11DL_LineDataRK13DL_Attributes@Base 3.12.2
+ _ZN6DL_Dxf9writeTextER10DL_WriterARK11DL_TextDataRK13DL_Attributes@Base 3.12.2
+ _ZN6DL_Dxf9writeViewER10DL_WriterA@Base 3.12.2
+ _ZN6DL_DxfC1Ev@Base 3.12.2
+ _ZN6DL_DxfC2Ev@Base 3.12.2
+ _ZN6DL_DxfD1Ev@Base 3.12.2
+ _ZN6DL_DxfD2Ev@Base 3.12.2
+ _ZNK10DL_WriterA10openFailedEv@Base 3.12.2
+ _ZNK10DL_WriterA5closeEv@Base 3.12.2
+ _ZNK10DL_WriterA6dxfHexEii@Base 3.12.2
+ _ZNK10DL_WriterA6dxfIntEii@Base 3.12.2
+ _ZNK10DL_WriterA7dxfRealEid@Base 3.12.2
+ _ZNK10DL_WriterA9dxfStringEiPKc@Base 3.12.2
+ _ZNK10DL_WriterA9dxfStringEiRKNSt7__cxx1112basic_stringIcSt11char_traitsIcESaIcEEE@Base 3.12.2
+ _ZNK9DL_Writer16entityAttributesERK13DL_Attributes@Base 3.12.2
+ _ZNK9DL_Writer17sectionBlockEntryEm@Base 3.12.2
+ _ZNK9DL_Writer18tableLinetypeEntryEm@Base 3.12.2
+ _ZNK9DL_Writer5coordEiddd@Base 3.12.2
+ _ZNK9DL_Writer6entityEPKc@Base 3.12.2
+ _ZNK9DL_Writer7dxfBoolEib@Base 3.12.2
+ _ZNKSt5ctypeIcE8do_widenEc@Base 3.12.2
+ _ZNSt20__uninitialized_copyILb0EE13__uninit_copyIP16DL_HatchEdgeDataS3_EET0_T_S5_S4_@Base 3.12.2
+ _ZNSt20__uninitialized_copyILb0EE13__uninit_copyIPSt6vectorI16DL_HatchEdgeDataSaIS3_EES6_EET0_T_S8_S7_@Base 3.12.2
+ _ZNSt20__uninitialized_copyILb0EE13__uninit_copyIPSt6vectorIdSaIdEES5_EET0_T_S7_S6_@Base 3.12.2
+ _ZNSt3mapIiNSt7__cxx1112basic_stringIcSt11char_traitsIcESaIcEEESt4lessIiESaISt4pairIKiS5_EEEixERS9_@Base 3.12.2
+ _ZNSt6vectorI16DL_HatchEdgeDataSaIS0_EE13_M_insert_auxEN9__gnu_cxx17__normal_iteratorIPS0_S2_EERKS0_@Base 3.12.2
+ _ZNSt6vectorI16DL_HatchEdgeDataSaIS0_EEC1ERKS2_@Base 3.12.2
+ _ZNSt6vectorI16DL_HatchEdgeDataSaIS0_EEC2ERKS2_@Base 3.12.2
+ _ZNSt6vectorI16DL_HatchEdgeDataSaIS0_EED1Ev@Base 3.12.2
+ _ZNSt6vectorI16DL_HatchEdgeDataSaIS0_EED2Ev@Base 3.12.2
+ _ZNSt6vectorI16DL_HatchEdgeDataSaIS0_EEaSERKS2_@Base 3.12.2
+ _ZNSt6vectorIS_I16DL_HatchEdgeDataSaIS0_EESaIS2_EE13_M_insert_auxEN9__gnu_cxx17__normal_iteratorIPS2_S4_EERKS2_@Base 3.12.2
+ _ZNSt6vectorIS_I16DL_HatchEdgeDataSaIS0_EESaIS2_EED1Ev@Base 3.12.2
+ _ZNSt6vectorIS_I16DL_HatchEdgeDataSaIS0_EESaIS2_EED2Ev@Base 3.12.2
+ _ZNSt6vectorIS_IdSaIdEESaIS1_EE13_M_insert_auxEN9__gnu_cxx17__normal_iteratorIPS1_S3_EERKS1_@Base 3.12.2
+ _ZNSt6vectorIS_IdSaIdEESaIS1_EE9push_backERKS1_@Base 3.12.2
+ _ZNSt6vectorIS_IdSaIdEESaIS1_EED1Ev@Base 3.12.2
+ _ZNSt6vectorIS_IdSaIdEESaIS1_EED2Ev@Base 3.12.2
+ _ZNSt6vectorIS_IdSaIdEESaIS1_EEaSERKS3_@Base 3.12.2
+ _ZNSt6vectorIdSaIdEE13_M_insert_auxEN9__gnu_cxx17__normal_iteratorIPdS1_EERKd@Base 3.12.2
+ _ZNSt6vectorIdSaIdEE9push_backERKd@Base 3.12.2
+ _ZNSt6vectorIdSaIdEEC1ERKS1_@Base 3.12.2
+ _ZNSt6vectorIdSaIdEEC2ERKS1_@Base 3.12.2
+ _ZNSt6vectorIdSaIdEEaSERKS1_@Base 3.12.2
+ _ZNSt8_Rb_treeIiSt4pairIKiNSt7__cxx1112basic_stringIcSt11char_traitsIcESaIcEEEESt10_Select1stIS8_ESt4lessIiESaIS8_EE24_M_get_insert_unique_posERS1_@Base 3.12.2
+ _ZNSt8_Rb_treeIiSt4pairIKiNSt7__cxx1112basic_stringIcSt11char_traitsIcESaIcEEEESt10_Select1stIS8_ESt4lessIiESaIS8_EE29_M_get_insert_hint_unique_posESt23_Rb_tree_const_iteratorIS8_ERS1_@Base 3.12.2
+ _ZNSt8_Rb_treeIiSt4pairIKiNSt7__cxx1112basic_stringIcSt11char_traitsIcESaIcEEEESt10_Select1stIS8_ESt4lessIiESaIS8_EE8_M_eraseEPSt13_Rb_tree_nodeIS8_E@Base 3.12.2
+ _ZTI10DL_WriterA@Base 3.12.2
+ _ZTI9DL_Writer@Base 3.12.2
+ _ZTS10DL_WriterA@Base 3.12.2
+ _ZTS9DL_Writer@Base 3.12.2
+ _ZTV10DL_WriterA@Base 3.12.2
